target datalayout = "e-m:e-p270:32:32-p271:32:32-p272:64:64-i64:64-i128:128-f80:128-n8:16:32:64-S128"
target triple = "x86_64-pc-linux-gnu"

; Function Attrs: mustprogress nounwind uwtable
define hidden void @_ZNK19OpenColorIO_v2_5dev19Renderer_XYZ_TO_uvY5applyEPKvPvl(ptr noundef nonnull align 8 dereferenceable(8) %0, ptr noundef %1, ptr noundef %2, i64 noundef %3) unnamed_addr #4 align 2 {
  %5 = alloca ptr, align 8
  %6 = alloca ptr, align 8
  %7 = alloca ptr, align 8
  %8 = alloca i64, align 8
  %9 = alloca ptr, align 8
  %10 = alloca ptr, align 8
  %11 = alloca i64, align 8
  %12 = alloca float, align 4
  %13 = alloca float, align 4
  %14 = alloca float, align 4
  %15 = alloca float, align 4
  %16 = alloca float, align 4
  %17 = alloca float, align 4
  store ptr %0, ptr %5, align 8, !tbaa !176
  store ptr %1, ptr %6, align 8, !tbaa !26
  store ptr %2, ptr %7, align 8, !tbaa !26
  store i64 %3, ptr %8, align 8, !tbaa !27
  call void @llvm.lifetime.start.p0(i64 8, ptr %9) #3
  %18 = load ptr, ptr %6, align 8, !tbaa !26
  store ptr %18, ptr %9, align 8, !tbaa !29
  call void @llvm.lifetime.start.p0(i64 8, ptr %10) #3
  %19 = load ptr, ptr %7, align 8, !tbaa !26
  store ptr %19, ptr %10, align 8, !tbaa !29
  call void @llvm.lifetime.start.p0(i64 8, ptr %11) #3
  store i64 0, ptr %11, align 8, !tbaa !27
  br label %20

20:                                               ; preds = %74, %4
  %21 = load i64, ptr %11, align 8, !tbaa !27
  %22 = load i64, ptr %8, align 8, !tbaa !27
  %23 = icmp slt i64 %21, %22
  br i1 %23, label %25, label %24

24:                                               ; preds = %20
  call void @llvm.lifetime.end.p0(i64 8, ptr %11) #3
  br label %77

25:                                               ; preds = %20
  call void @llvm.lifetime.start.p0(i64 4, ptr %12) #3
  %26 = load ptr, ptr %9, align 8, !tbaa !29
  %27 = getelementptr inbounds float, ptr %26, i64 0
  %28 = load float, ptr %27, align 4, !tbaa !31
  store float %28, ptr %12, align 4, !tbaa !31
  call void @llvm.lifetime.start.p0(i64 4, ptr %13) #3
  %29 = load ptr, ptr %9, align 8, !tbaa !29
  %30 = getelementptr inbounds float, ptr %29, i64 1
  %31 = load float, ptr %30, align 4, !tbaa !31
  store float %31, ptr %13, align 4, !tbaa !31
  call void @llvm.lifetime.start.p0(i64 4, ptr %14) #3
  %32 = load ptr, ptr %9, align 8, !tbaa !29
  %33 = getelementptr inbounds float, ptr %32, i64 2
  %34 = load float, ptr %33, align 4, !tbaa !31
  store float %34, ptr %14, align 4, !tbaa !31
  call void @llvm.lifetime.start.p0(i64 4, ptr %15) #3
  %35 = load float, ptr %12, align 4, !tbaa !31
  %36 = load float, ptr %13, align 4, !tbaa !31
  %37 = call float @llvm.fmuladd.f32(float 1.500000e+01, float %36, float %35)
  %38 = load float, ptr %14, align 4, !tbaa !31
  %39 = call float @llvm.fmuladd.f32(float 3.000000e+00, float %38, float %37)
  store float %39, ptr %15, align 4, !tbaa !31
  %40 = load float, ptr %15, align 4, !tbaa !31
  %41 = fcmp oeq float %40, 0.000000e+00
  br i1 %41, label %42, label %43

42:                                               ; preds = %25
  br label %46

43:                                               ; preds = %25
  %44 = load float, ptr %15, align 4, !tbaa !31
  %45 = fdiv float 1.000000e+00, %44
  br label %46

46:                                               ; preds = %43, %42
  %47 = phi float [ 0.000000e+00, %42 ], [ %45, %43 ]
  store float %47, ptr %15, align 4, !tbaa !31
  call void @llvm.lifetime.start.p0(i64 4, ptr %16) #3
  %48 = load float, ptr %12, align 4, !tbaa !31
  %49 = fmul float 4.000000e+00, %48
  %50 = load float, ptr %15, align 4, !tbaa !31
  %51 = fmul float %49, %50
  store float %51, ptr %16, align 4, !tbaa !31
  call void @llvm.lifetime.start.p0(i64 4, ptr %17) #3
  %52 = load float, ptr %13, align 4, !tbaa !31
  %53 = fmul float 9.000000e+00, %52
  %54 = load float, ptr %15, align 4, !tbaa !31
  %55 = fmul float %53, %54
  store float %55, ptr %17, align 4, !tbaa !31
  %56 = load float, ptr %16, align 4, !tbaa !31
  %57 = load ptr, ptr %10, align 8, !tbaa !29
  %58 = getelementptr inbounds float, ptr %57, i64 0
  store float %56, ptr %58, align 4, !tbaa !31
  %59 = load float, ptr %17, align 4, !tbaa !31
  %60 = load ptr, ptr %10, align 8, !tbaa !29
  %61 = getelementptr inbounds float, ptr %60, i64 1
  store float %59, ptr %61, align 4, !tbaa !31
  %62 = load float, ptr %13, align 4, !tbaa !31
  %63 = load ptr, ptr %10, align 8, !tbaa !29
  %64 = getelementptr inbounds float, ptr %63, i64 2
  store float %62, ptr %64, align 4, !tbaa !31
  %65 = load ptr, ptr %9, align 8, !tbaa !29
  %66 = getelementptr inbounds float, ptr %65, i64 3
  %67 = load float, ptr %66, align 4, !tbaa !31
  %68 = load ptr, ptr %10, align 8, !tbaa !29
  %69 = getelementptr inbounds float, ptr %68, i64 3
  store float %67, ptr %69, align 4, !tbaa !31
  %70 = load ptr, ptr %9, align 8, !tbaa !29
  %71 = getelementptr inbounds float, ptr %70, i64 4
  store ptr %71, ptr %9, align 8, !tbaa !29
  %72 = load ptr, ptr %10, align 8, !tbaa !29
  %73 = getelementptr inbounds float, ptr %72, i64 4
  store ptr %73, ptr %10, align 8, !tbaa !29
  call void @llvm.lifetime.end.p0(i64 4, ptr %17) #3
  call void @llvm.lifetime.end.p0(i64 4, ptr %16) #3
  call void @llvm.lifetime.end.p0(i64 4, ptr %15) #3
  call void @llvm.lifetime.end.p0(i64 4, ptr %14) #3
  call void @llvm.lifetime.end.p0(i64 4, ptr %13) #3
  call void @llvm.lifetime.end.p0(i64 4, ptr %12) #3
  br label %74

74:                                               ; preds = %46
  %75 = load i64, ptr %11, align 8, !tbaa !27
  %76 = add nsw i64 %75, 1
  store i64 %76, ptr %11, align 8, !tbaa !27
  br label %20, !llvm.loop !178

77:                                               ; preds = %24
  call void @llvm.lifetime.end.p0(i64 8, ptr %10) #3
  call void @llvm.lifetime.end.p0(i64 8, ptr %9) #3
  ret void
}