; Function Attrs: mustprogress nofree norecurse nosync nounwind memory(argmem: readwrite) uwtable
define hidden void @_ZNK19OpenColorIO_v2_5dev19Renderer_XYZ_TO_uvY5applyEPKvPvl(ptr nonnull readnone align 8 captures(none) %0, ptr noundef readonly captures(none) %1, ptr noundef writeonly captures(none) %2, i64 noundef %3) unnamed_addr #13 align 2 {
  %5 = icmp sgt i64 %3, 0
  br i1 %5, label %.lr.ph, label %._crit_edge

._crit_edge:                                      ; preds = %.lr.ph, %4
  ret void

.lr.ph:                                           ; preds = %4, %.lr.ph
  %.030 = phi ptr [ %25, %.lr.ph ], [ %1, %4 ]
  %.02629 = phi ptr [ %26, %.lr.ph ], [ %2, %4 ]
  %.02728 = phi i64 [ %27, %.lr.ph ], [ 0, %4 ]
  %6 = load float, ptr %.030, align 4, !tbaa !13
  %7 = getelementptr inbounds nuw i8, ptr %.030, i64 4
  %8 = load float, ptr %7, align 4, !tbaa !13
  %9 = getelementptr inbounds nuw i8, ptr %.030, i64 8
  %10 = load float, ptr %9, align 4, !tbaa !13
  %11 = tail call float @llvm.fmuladd.f32(float %8, float 1.500000e+01, float %6)
  %12 = tail call float @llvm.fmuladd.f32(float %10, float 3.000000e+00, float %11)
  %13 = fcmp oeq float %12, 0.000000e+00
  %14 = fdiv float 1.000000e+00, %12
  %15 = select i1 %13, float 0.000000e+00, float %14
  %16 = fmul float %6, 4.000000e+00
  %17 = fmul float %16, %15
  %18 = fmul float %8, 9.000000e+00
  %19 = fmul float %18, %15
  store float %17, ptr %.02629, align 4, !tbaa !13
  %20 = getelementptr inbounds nuw i8, ptr %.02629, i64 4
  store float %19, ptr %20, align 4, !tbaa !13
  %21 = getelementptr inbounds nuw i8, ptr %.02629, i64 8
  store float %8, ptr %21, align 4, !tbaa !13
  %22 = getelementptr inbounds nuw i8, ptr %.030, i64 12
  %23 = load float, ptr %22, align 4, !tbaa !13
  %24 = getelementptr inbounds nuw i8, ptr %.02629, i64 12
  store float %23, ptr %24, align 4, !tbaa !13
  %25 = getelementptr inbounds nuw i8, ptr %.030, i64 16
  %26 = getelementptr inbounds nuw i8, ptr %.02629, i64 16
  %27 = add nuw nsw i64 %.02728, 1
  %exitcond.not = icmp eq i64 %27, %3
  br i1 %exitcond.not, label %._crit_edge, label %.lr.ph, !llvm.loop !122
}